target datalayout = "e-m:e-p270:32:32-p271:32:32-p272:64:64-i64:64-i128:128-f80:128-n8:16:32:64-S128"
target triple = "x86_64-pc-linux-gnu"

%union.anon = type { i32, [12 x i8] }
%struct._resolved_name = type { [256 x i8] }

@manually_resolved_ipv6_list = internal global ptr null, align 8
@manually_resolved_ipv4_list = internal global ptr null, align 8

; Function Attrs: alwaysinline nounwind
define internal ptr @memcpy.inline(ptr noalias %0, ptr noalias %1, i64 %2) #8 {
  %4 = alloca ptr, align 8
  %5 = alloca ptr, align 8
  %6 = alloca i64, align 8
  store ptr %0, ptr %4, align 8
  store ptr %1, ptr %5, align 8
  store i64 %2, ptr %6, align 8
  %7 = load ptr, ptr %4, align 8
  %8 = load ptr, ptr %5, align 8
  %9 = load i64, ptr %6, align 8
  %10 = load ptr, ptr %4, align 8
  %11 = call i64 @llvm.objectsize.i64.p0(ptr %10, i1 false, i1 true, i1 true)
  %12 = call ptr @__memcpy_chk(ptr noundef %7, ptr noundef %8, i64 noundef %9, i64 noundef %11) #16
  ret ptr %12
}

; Function Attrs: null_pointer_is_valid sspstrong uwtable
define zeroext i1 @add_ip_name_from_string(ptr noundef %0, ptr noundef %1) #3 {
  %3 = alloca i1, align 1
  %4 = alloca ptr, align 8
  %5 = alloca ptr, align 8
  %6 = alloca %union.anon, align 4
  %7 = alloca i8, align 1
  %8 = alloca ptr, align 8
  %9 = alloca i32, align 4
  %10 = alloca ptr, align 8
  store ptr %0, ptr %4, align 8
  store ptr %1, ptr %5, align 8
  call void @llvm.lifetime.start.p0(i64 16, ptr %6) #16
  call void @llvm.lifetime.start.p0(i64 1, ptr %7) #16
  call void @llvm.lifetime.start.p0(i64 8, ptr %8) #16
  %11 = load ptr, ptr %4, align 8
  %12 = call zeroext i1 @ws_inet_pton6(ptr noundef %11, ptr noundef %6)
  br i1 %12, label %13, label %14

13:                                               ; preds = %2
  store i8 1, ptr %7, align 1
  br label %20

14:                                               ; preds = %2
  %15 = load ptr, ptr %4, align 8
  %16 = call zeroext i1 @ws_inet_pton4(ptr noundef %15, ptr noundef %6)
  br i1 %16, label %17, label %18

17:                                               ; preds = %14
  store i8 0, ptr %7, align 1
  br label %19

18:                                               ; preds = %14
  store i1 false, ptr %3, align 1
  store i32 1, ptr %9, align 4
  br label %81

19:                                               ; preds = %17
  br label %20

20:                                               ; preds = %19, %13
  %21 = load i8, ptr %7, align 1, !range !8, !noundef !9
  %22 = trunc i8 %21 to i1
  br i1 %22, label %23, label %51

23:                                               ; preds = %20
  %24 = load ptr, ptr @manually_resolved_ipv6_list, align 8
  %25 = call ptr @wmem_map_lookup(ptr noundef %24, ptr noundef %6)
  store ptr %25, ptr %8, align 8
  %26 = load ptr, ptr %8, align 8
  %27 = icmp ne ptr %26, null
  br i1 %27, label %28, label %34

28:                                               ; preds = %23
  %29 = load ptr, ptr %8, align 8
  %30 = getelementptr inbounds nuw %struct._resolved_name, ptr %29, i32 0, i32 0
  %31 = getelementptr inbounds [256 x i8], ptr %30, i64 0, i64 0
  %32 = load ptr, ptr %5, align 8
  %33 = call i64 @g_strlcpy(ptr noundef %31, ptr noundef %32, i64 noundef 256)
  br label %50

34:                                               ; preds = %23
  call void @llvm.lifetime.start.p0(i64 8, ptr %10) #16
  %35 = call ptr @wmem_epan_scope()
  %36 = call noalias ptr @wmem_alloc(ptr noundef %35, i64 noundef 16) #19
  store ptr %36, ptr %10, align 8
  %37 = load ptr, ptr %10, align 8
  %38 = call ptr @memcpy.inline(ptr noundef %37, ptr noundef %6, i64 noundef 16) #16
  %39 = call ptr @wmem_epan_scope()
  %40 = call noalias ptr @wmem_alloc(ptr noundef %39, i64 noundef 256) #19
  store ptr %40, ptr %8, align 8
  %41 = load ptr, ptr %8, align 8
  %42 = getelementptr inbounds nuw %struct._resolved_name, ptr %41, i32 0, i32 0
  %43 = getelementptr inbounds [256 x i8], ptr %42, i64 0, i64 0
  %44 = load ptr, ptr %5, align 8
  %45 = call i64 @g_strlcpy(ptr noundef %43, ptr noundef %44, i64 noundef 256)
  %46 = load ptr, ptr @manually_resolved_ipv6_list, align 8
  %47 = load ptr, ptr %10, align 8
  %48 = load ptr, ptr %8, align 8
  %49 = call ptr @wmem_map_insert(ptr noundef %46, ptr noundef %47, ptr noundef %48)
  call void @llvm.lifetime.end.p0(i64 8, ptr %10) #16
  br label %50

50:                                               ; preds = %34, %28
  br label %80

51:                                               ; preds = %20
  %52 = load ptr, ptr @manually_resolved_ipv4_list, align 8
  %53 = load i32, ptr %6, align 4
  %54 = zext i32 %53 to i64
  %55 = inttoptr i64 %54 to ptr
  %56 = call ptr @wmem_map_lookup(ptr noundef %52, ptr noundef %55)
  store ptr %56, ptr %8, align 8
  %57 = load ptr, ptr %8, align 8
  %58 = icmp ne ptr %57, null
  br i1 %58, label %59, label %65

59:                                               ; preds = %51
  %60 = load ptr, ptr %8, align 8
  %61 = getelementptr inbounds nuw %struct._resolved_name, ptr %60, i32 0, i32 0
  %62 = getelementptr inbounds [256 x i8], ptr %61, i64 0, i64 0
  %63 = load ptr, ptr %5, align 8
  %64 = call i64 @g_strlcpy(ptr noundef %62, ptr noundef %63, i64 noundef 256)
  br label %79

65:                                               ; preds = %51
  %66 = call ptr @wmem_epan_scope()
  %67 = call noalias ptr @wmem_alloc(ptr noundef %66, i64 noundef 256) #19
  store ptr %67, ptr %8, align 8
  %68 = load ptr, ptr %8, align 8
  %69 = getelementptr inbounds nuw %struct._resolved_name, ptr %68, i32 0, i32 0
  %70 = getelementptr inbounds [256 x i8], ptr %69, i64 0, i64 0
  %71 = load ptr, ptr %5, align 8
  %72 = call i64 @g_strlcpy(ptr noundef %70, ptr noundef %71, i64 noundef 256)
  %73 = load ptr, ptr @manually_resolved_ipv4_list, align 8
  %74 = load i32, ptr %6, align 4
  %75 = zext i32 %74 to i64
  %76 = inttoptr i64 %75 to ptr
  %77 = load ptr, ptr %8, align 8
  %78 = call ptr @wmem_map_insert(ptr noundef %73, ptr noundef %76, ptr noundef %77)
  br label %79

79:                                               ; preds = %65, %59
  br label %80

80:                                               ; preds = %79, %50
  store i1 true, ptr %3, align 1
  store i32 1, ptr %9, align 4
  br label %81

81:                                               ; preds = %80, %18
  call void @llvm.lifetime.end.p0(i64 8, ptr %8) #16
  call void @llvm.lifetime.end.p0(i64 1, ptr %7) #16
  call void @llvm.lifetime.end.p0(i64 16, ptr %6) #16
  %82 = load i1, ptr %3, align 1
  ret i1 %82
}