; Function Attrs: null_pointer_is_valid sspstrong uwtable
define noundef zeroext i1 @add_ip_name_from_string(ptr noundef %0, ptr noundef %1) local_unnamed_addr #3 {
  %3 = alloca %union.anon, align 4
  call void @llvm.lifetime.start.p0(i64 16, ptr nonnull %3) #24
  %4 = call zeroext i1 @ws_inet_pton6(ptr noundef %0, ptr noundef nonnull %3)
  br i1 %4, label %.critedge, label %5

5:                                                ; preds = %2
  %6 = call zeroext i1 @ws_inet_pton4(ptr noundef %0, ptr noundef nonnull %3)
  br i1 %6, label %19, label %36

.critedge:                                        ; preds = %2
  %7 = load ptr, ptr @manually_resolved_ipv6_list, align 8
  %8 = call ptr @wmem_map_lookup(ptr noundef %7, ptr noundef nonnull %3)
  %.not20 = icmp eq ptr %8, null
  br i1 %.not20, label %11, label %9

9:                                                ; preds = %.critedge
  %10 = call i64 @g_strlcpy(ptr noundef nonnull %8, ptr noundef %1, i64 noundef 256)
  br label %36

11:                                               ; preds = %.critedge
  %12 = call ptr @wmem_epan_scope()
  %13 = call noalias dereferenceable_or_null(16) ptr @wmem_alloc(ptr noundef %12, i64 noundef 16) #26
  call void @llvm.memcpy.p0.p0.i64(ptr noundef align 1 dereferenceable(16) %13, ptr noundef nonnull align 4 dereferenceable(16) %3, i64 noundef 16, i1 noundef false) #24
  %14 = call ptr @wmem_epan_scope()
  %15 = call noalias dereferenceable_or_null(256) ptr @wmem_alloc(ptr noundef %14, i64 noundef 256) #26
  %16 = call i64 @g_strlcpy(ptr noundef %15, ptr noundef %1, i64 noundef 256)
  %17 = load ptr, ptr @manually_resolved_ipv6_list, align 8
  %18 = call ptr @wmem_map_insert(ptr noundef %17, ptr noundef %13, ptr noundef %15)
  br label %36

19:                                               ; preds = %5
  %20 = load ptr, ptr @manually_resolved_ipv4_list, align 8
  %21 = load i32, ptr %3, align 4
  %22 = zext i32 %21 to i64
  %23 = inttoptr i64 %22 to ptr
  %24 = call ptr @wmem_map_lookup(ptr noundef %20, ptr noundef %23)
  %.not = icmp eq ptr %24, null
  br i1 %.not, label %27, label %25

25:                                               ; preds = %19
  %26 = call i64 @g_strlcpy(ptr noundef nonnull %24, ptr noundef %1, i64 noundef 256)
  br label %36

27:                                               ; preds = %19
  %28 = call ptr @wmem_epan_scope()
  %29 = call noalias dereferenceable_or_null(256) ptr @wmem_alloc(ptr noundef %28, i64 noundef 256) #26
  %30 = call i64 @g_strlcpy(ptr noundef %29, ptr noundef %1, i64 noundef 256)
  %31 = load ptr, ptr @manually_resolved_ipv4_list, align 8
  %32 = load i32, ptr %3, align 4
  %33 = zext i32 %32 to i64
  %34 = inttoptr i64 %33 to ptr
  %35 = call ptr @wmem_map_insert(ptr noundef %31, ptr noundef %34, ptr noundef %29)
  br label %36

36:                                               ; preds = %11, %9, %27, %25, %5
  %.0 = phi i1 [ false, %5 ], [ true, %25 ], [ true, %27 ], [ true, %9 ], [ true, %11 ]
  call void @llvm.lifetime.end.p0(i64 16, ptr nonnull %3) #24
  ret i1 %.0
}